; ModuleID = 'source-C-CXX/56/2617.c'
source_filename = "source-C-CXX/56/2617.c"
target datalayout = "e-m:e-p270:32:32-p271:32:32-p272:64:64-i64:64-f80:128-n8:16:32:64-S128"
target triple = "x86_64-pc-linux-gnu"

@.str = private unnamed_addr constant [3 x i8] c"%d\00", align 1
@.str.1 = private unnamed_addr constant [3 x i8] c"%s\00", align 1

; Function Attrs: nofree nounwind sspstrong uwtable
define dso_local i32 @main() local_unnamed_addr #0 {
  %1 = alloca i32, align 4
  %2 = alloca [20 x i8], align 16
  %3 = bitcast i32* %1 to i8*
  call void @llvm.lifetime.start.p0i8(i64 4, i8* nonnull %3) #5
  %4 = getelementptr inbounds [20 x i8], [20 x i8]* %2, i64 0, i64 0
  call void @llvm.lifetime.start.p0i8(i64 20, i8* nonnull %4) #5
  %5 = call i32 (i8*, ...) @__isoc99_scanf(i8* getelementptr inbounds ([3 x i8], [3 x i8]* @.str, i64 0, i64 0), i32* nonnull %1)
  %6 = load i32, i32* %1, align 4, !tbaa !5
  %7 = icmp sgt i32 %6, 0
  br i1 %7, label %8, label %63

8:                                                ; preds = %0, %58
  %9 = phi i32 [ %60, %58 ], [ 0, %0 ]
  %10 = call i32 (i8*, ...) @__isoc99_scanf(i8* getelementptr inbounds ([3 x i8], [3 x i8]* @.str.1, i64 0, i64 0), i8* nonnull %4)
  %11 = call i64 @strlen(i8* noundef nonnull %4) #6
  %12 = trunc i64 %11 to i32
  %13 = shl i64 %11, 32
  %14 = add i64 %13, -4294967296
  %15 = ashr exact i64 %14, 32
  %16 = getelementptr inbounds [20 x i8], [20 x i8]* %2, i64 0, i64 %15
  %17 = load i8, i8* %16, align 1, !tbaa !9
  switch i8 %17, label %45 [
    i8 114, label %18
    i8 121, label %24
    i8 103, label %32
  ]

18:                                               ; preds = %8
  %19 = add i64 %13, -8589934592
  %20 = ashr exact i64 %19, 32
  %21 = getelementptr inbounds [20 x i8], [20 x i8]* %2, i64 0, i64 %20
  %22 = load i8, i8* %21, align 1, !tbaa !9
  %23 = icmp eq i8 %22, 101
  br i1 %23, label %30, label %45

24:                                               ; preds = %8
  %25 = add i64 %13, -8589934592
  %26 = ashr exact i64 %25, 32
  %27 = getelementptr inbounds [20 x i8], [20 x i8]* %2, i64 0, i64 %26
  %28 = load i8, i8* %27, align 1, !tbaa !9
  %29 = icmp eq i8 %28, 108
  br i1 %29, label %30, label %45

30:                                               ; preds = %24, %18
  %31 = add nsw i32 %12, -2
  br label %45

32:                                               ; preds = %8
  %33 = add i64 %13, -8589934592
  %34 = ashr exact i64 %33, 32
  %35 = getelementptr inbounds [20 x i8], [20 x i8]* %2, i64 0, i64 %34
  %36 = load i8, i8* %35, align 1, !tbaa !9
  %37 = icmp eq i8 %36, 110
  br i1 %37, label %38, label %45

38:                                               ; preds = %32
  %39 = add nsw i32 %12, -3
  %40 = sext i32 %39 to i64
  %41 = getelementptr inbounds [20 x i8], [20 x i8]* %2, i64 0, i64 %40
  %42 = load i8, i8* %41, align 1, !tbaa !9
  %43 = icmp eq i8 %42, 105
  %44 = select i1 %43, i32 %39, i32 %12
  br label %45

45:                                               ; preds = %8, %18, %24, %38, %32, %30
  %46 = phi i32 [ %31, %30 ], [ %12, %32 ], [ %44, %38 ], [ %12, %24 ], [ %12, %18 ], [ %12, %8 ]
  %47 = icmp sgt i32 %46, 0
  br i1 %47, label %48, label %58

48:                                               ; preds = %45
  %49 = zext i32 %46 to i64
  br label %50

50:                                               ; preds = %48, %50
  %51 = phi i64 [ 0, %48 ], [ %56, %50 ]
  %52 = getelementptr inbounds [20 x i8], [20 x i8]* %2, i64 0, i64 %51
  %53 = load i8, i8* %52, align 1, !tbaa !9
  %54 = sext i8 %53 to i32
  %55 = call i32 @putchar(i32 %54)
  %56 = add nuw nsw i64 %51, 1
  %57 = icmp eq i64 %56, %49
  br i1 %57, label %58, label %50, !llvm.loop !10

58:                                               ; preds = %50, %45
  %59 = call i32 @putchar(i32 10)
  %60 = add nuw nsw i32 %9, 1
  %61 = load i32, i32* %1, align 4, !tbaa !5
  %62 = icmp slt i32 %60, %61
  br i1 %62, label %8, label %63, !llvm.loop !12

63:                                               ; preds = %58, %0
  call void @llvm.lifetime.end.p0i8(i64 20, i8* nonnull %4) #5
  call void @llvm.lifetime.end.p0i8(i64 4, i8* nonnull %3) #5
  ret i32 0
}

; Function Attrs: argmemonly mustprogress nofree nosync nounwind willreturn
declare void @llvm.lifetime.start.p0i8(i64 immarg, i8* nocapture) #1

; Function Attrs: nofree nounwind
declare noundef i32 @__isoc99_scanf(i8* nocapture noundef readonly, ...) local_unnamed_addr #2

; Function Attrs: argmemonly mustprogress nofree nounwind readonly willreturn
declare i64 @strlen(i8* nocapture) local_unnamed_addr #3

; Function Attrs: argmemonly mustprogress nofree nosync nounwind willreturn
declare void @llvm.lifetime.end.p0i8(i64 immarg, i8* nocapture) #1

; Function Attrs: nofree nounwind
declare noundef i32 @putchar(i32 noundef) local_unnamed_addr #4


!llvm.module.flags = !{!0, !1, !2, !3}
!llvm.ident = !{!4}

!0 = !{i32 1, !"wchar_size", i32 4}
!1 = !{i32 7, !"PIC Level", i32 2}
!2 = !{i32 7, !"PIE Level", i32 2}
!3 = !{i32 7, !"uwtable", i32 1}
!4 = !{!"clang version 13.0.0"}
!5 = !{!6, !6, i64 0}
!6 = !{!"int", !7, i64 0}
!7 = !{!"omnipotent char", !8, i64 0}
!8 = !{!"Simple C/C++ TBAA"}
!9 = !{!7, !7, i64 0}
!10 = distinct !{!10, !11}
!11 = !{!"llvm.loop.mustprogress"}
!12 = distinct !{!12, !11}
